target datalayout = "e-m:e-p270:32:32-p271:32:32-p272:64:64-i64:64-i128:128-f80:128-n8:16:32:64-S128"
target triple = "x86_64-pc-linux-gnu"

%struct.QVirtioPCIDevice = type { %struct.QOSGraphObject, %struct.QVirtioDevice, ptr, %struct.QPCIBar, ptr, i16, i64, i32, i32, i32, i32, i32, i32, i32 }
%struct.QOSGraphObject = type { ptr, ptr, ptr, ptr, ptr }
%struct.QVirtioDevice = type { ptr, i16, i64, i8, i8 }
%struct.QPCIBar = type { i64, i8 }

; Function Attrs: nounwind sspstrong uwtable
define internal void @set_status(ptr noundef %0, i8 noundef zeroext %1) #0 {
  %3 = alloca ptr, align 8
  %4 = alloca i8, align 1
  %5 = alloca ptr, align 8
  %6 = alloca ptr, align 8
  %7 = alloca ptr, align 8
  store ptr %0, ptr %3, align 8
  store i8 %1, ptr %4, align 1
  call void @llvm.lifetime.start.p0(i64 8, ptr %5) #5
  call void @llvm.lifetime.start.p0(i64 8, ptr %6) #5
  %8 = load ptr, ptr %3, align 8
  store ptr %8, ptr %6, align 8
  %9 = load ptr, ptr %6, align 8
  %10 = getelementptr inbounds i8, ptr %9, i64 -40
  store ptr %10, ptr %7, align 8
  call void @llvm.lifetime.end.p0(i64 8, ptr %6) #5
  %11 = load ptr, ptr %7, align 8
  store ptr %11, ptr %5, align 8
  %12 = load ptr, ptr %5, align 8
  %13 = getelementptr inbounds nuw %struct.QVirtioPCIDevice, ptr %12, i32 0, i32 2
  %14 = load ptr, ptr %13, align 8
  %15 = load ptr, ptr %5, align 8
  %16 = getelementptr inbounds nuw %struct.QVirtioPCIDevice, ptr %15, i32 0, i32 3
  %17 = load ptr, ptr %5, align 8
  %18 = getelementptr inbounds nuw %struct.QVirtioPCIDevice, ptr %17, i32 0, i32 9
  %19 = load i32, ptr %18, align 8
  %20 = zext i32 %19 to i64
  %21 = add i64 %20, 20
  %22 = load i8, ptr %4, align 1
  %23 = getelementptr inbounds nuw { i64, i8 }, ptr %16, i32 0, i32 0
  %24 = load i64, ptr %23, align 8
  %25 = getelementptr inbounds nuw { i64, i8 }, ptr %16, i32 0, i32 1
  %26 = load i8, ptr %25, align 8
  call void @qpci_io_writeb(ptr noundef %14, i64 %24, i8 %26, i64 noundef %21, i8 noundef zeroext %22)
  call void @llvm.lifetime.end.p0(i64 8, ptr %5) #5
  ret void
}